target datalayout = "e-m:e-p270:32:32-p271:32:32-p272:64:64-i64:64-i128:128-f80:128-n8:16:32:64-S128"
target triple = "x86_64-pc-linux-gnu"

%struct.Curl_easy = type { i32, i64, ptr, ptr, ptr, %struct.Curl_llist_element, %struct.Curl_llist_element, i32, i32, %struct.Curl_message, %struct.easy_pollset, %struct.Names, ptr, ptr, ptr, %struct.SingleRequest, %struct.UserDefined, ptr, ptr, %struct.Progress, %struct.UrlState, ptr, %struct.PureInfo, %struct.curl_tlssessioninfo }
%struct.Curl_llist_element = type { ptr, ptr, ptr }
%struct.Curl_message = type { %struct.Curl_llist_element, %struct.CURLMsg }
%struct.CURLMsg = type { i32, ptr, %union.anon }
%union.anon = type { ptr }
%struct.easy_pollset = type { [5 x i32], i32, [5 x i8] }
%struct.Names = type { ptr, i32 }
%struct.SingleRequest = type <{ i64, i64, i64, i64, i64, %struct.curltime, i32, i32, i32, i32, i64, i32, i32, %struct.curltime, i32, i32, ptr, i64, i64, ptr, ptr, i64, ptr, %union.anon.0, ptr, [2 x i8], i8, i16, [3 x i8] }>
%struct.curltime = type { i64, i32 }
%union.anon.0 = type { ptr }
%struct.UserDefined = type <{ ptr, ptr, ptr, ptr, ptr, ptr, i16, [6 x i8], i64, i64, i64, ptr, ptr, i64, i16, i16, [4 x i8], ptr, ptr, ptr, ptr, ptr, ptr, ptr, ptr, ptr, ptr, ptr, ptr, ptr, ptr, ptr, ptr, ptr, ptr, ptr, ptr, ptr, ptr, ptr, i32, i32, i32, i32, i64, i64, i64, i64, i64, i64, i64, i64, ptr, ptr, %struct.curl_mimepart, ptr, ptr, i64, i8, i8, i8, [5 x i8], %struct.ssl_config_data, %struct.ssl_config_data, ptr, i16, i8, i8, [4 x i8], %struct.ssl_general_config, i32, i32, i32, [4 x i8], ptr, ptr, i8, [7 x i8], i64, i8, i8, i8, i8, i32, ptr, ptr, ptr, i8, i8, [2 x i8], i32, [80 x ptr], [8 x ptr], i32, i32, i32, [4 x i8], ptr, ptr, ptr, ptr, ptr, i8, [3 x i8], i32, i32, [4 x i8], i64, %struct.Curl_data_priority, ptr, ptr, i64, ptr, ptr, ptr, ptr, ptr, i8, [3 x i8], i32, i8, i8, i56, [6 x i8] }>
%struct.curl_mimepart = type { ptr, ptr, i32, i32, ptr, ptr, ptr, ptr, ptr, ptr, ptr, ptr, ptr, ptr, ptr, i64, %struct.mime_state, ptr, %struct.mime_encoder_state, i64 }
%struct.mime_state = type { i32, ptr, i64 }
%struct.mime_encoder_state = type { i64, i64, i64, [256 x i8] }
%struct.ssl_config_data = type { %struct.ssl_primary_config, i64, ptr, ptr, ptr, ptr, ptr, ptr, ptr, i8 }
%struct.ssl_primary_config = type { ptr, ptr, ptr, ptr, ptr, ptr, ptr, ptr, ptr, ptr, ptr, ptr, i8, i32, i8, i8 }
%struct.ssl_general_config = type { i64, i32 }
%struct.Curl_data_priority = type { ptr, ptr, i32, i8 }
%struct.Progress = type { i64, i64, i64, i64, i64, i64, i32, i32, i64, i64, i64, i64, i64, i64, i64, i64, i64, i64, %struct.curltime, %struct.curltime, %struct.curltime, %struct.curltime, %struct.curltime, i64, %struct.curltime, i64, [6 x i64], [6 x %struct.curltime], i32, i8 }
%struct.UrlState = type { ptr, %struct.curltime, i64, i64, %struct.dynbuf, ptr, ptr, ptr, i64, ptr, i32, i32, i32, ptr, i64, [3 x %struct.tempbuf], i32, i32, ptr, i64, i32, ptr, %struct.digestdata, %struct.digestdata, %struct.auth, %struct.auth, %struct.Curl_async, ptr, %struct.curltime, %struct.Curl_tree, %struct.Curl_llist, [15 x %struct.time_node], ptr, i8, i64, ptr, i64, i64, %struct.Curl_data_priority, ptr, ptr, ptr, %struct.urlpieces, ptr, ptr, ptr, ptr, ptr, i64, %struct.dynbuf, %struct.Curl_llist, [2 x %struct.curl_header], ptr, i32, ptr, %struct.dynamically_allocated_data, i8, i8, i8, i8, i24 }
%struct.tempbuf = type { %struct.dynbuf, i32, i8 }
%struct.digestdata = type { ptr, ptr, ptr, ptr, ptr, ptr, i32, i8, i8 }
%struct.auth = type { i64, i64, i64, i8 }
%struct.Curl_async = type { ptr, ptr, ptr, ptr, i32, i32, i8 }
%struct.Curl_tree = type { ptr, ptr, ptr, ptr, %struct.curltime, ptr }
%struct.time_node = type { %struct.Curl_llist_element, %struct.curltime, i32 }
%struct.urlpieces = type { ptr, ptr, ptr, ptr, ptr, ptr, ptr, ptr }
%struct.dynbuf = type { ptr, i64, i64, i64 }
%struct.Curl_llist = type { ptr, ptr, ptr, i64 }
%struct.curl_header = type { ptr, ptr, i64, i64, i32, ptr }
%struct.dynamically_allocated_data = type { ptr, ptr, ptr, ptr, ptr, ptr, ptr, ptr, ptr, ptr, ptr, ptr, ptr, ptr }
%struct.PureInfo = type { i32, i32, i32, i64, i64, i64, i64, i64, ptr, ptr, i64, i32, [46 x i8], i32, i32, [46 x i8], i32, ptr, i32, %struct.curl_certinfo, i32, i8 }
%struct.curl_certinfo = type { i32, ptr }
%struct.curl_tlssessioninfo = type { i32, ptr }
%struct.connectdata = type { %struct.Curl_llist_element, ptr, ptr, i64, ptr, ptr, %struct.hostname, ptr, ptr, %struct.hostname, %struct.proxy_info, %struct.proxy_info, [46 x i8], ptr, ptr, ptr, ptr, ptr, %struct.curltime, %struct.curltime, %struct.curltime, [2 x i32], [2 x ptr], [2 x ptr], [2 x ptr], %struct.ssl_primary_config, %struct.ssl_primary_config, %struct.ConnectBits, ptr, ptr, %struct.curltime, i32, i32, %struct.Curl_llist, ptr, ptr, i32, i32, %struct.ntlmdata, %struct.ntlmdata, %union.anon.1, ptr, ptr, i16, i32, i32, i32, i32, i32, i16, i16, i8, i8, i8, i8, i8, i8, i8 }
%struct.hostname = type { ptr, ptr, ptr, ptr }
%struct.proxy_info = type { %struct.hostname, i32, i8, ptr, ptr }
%struct.ConnectBits = type { i32 }
%struct.ntlmdata = type { i32, [8 x i8], i32, ptr }
%union.anon.1 = type { %struct.ftp_conn }
%struct.ftp_conn = type { %struct.pingpong, ptr, ptr, ptr, ptr, ptr, ptr, ptr, i8, i64, ptr, i64, i32, i32, i32, i32, i32, i16, i8, i8, i8, i8, i8 }
%struct.pingpong = type { i64, i8, ptr, i64, i64, %struct.curltime, i64, %struct.dynbuf, %struct.dynbuf, i64, i64, ptr, ptr }
%struct.smb_conn = type { i32, ptr, ptr, ptr, [8 x i8], i32, i16, ptr, i64, i64, i64, i64 }

@Curl_cstrdup = external global ptr, align 8
@Curl_cmalloc = external global ptr, align 8

; Function Attrs: nounwind uwtable
define internal i32 @smb_connect(ptr noundef %0, ptr noundef %1) #0 {
  %3 = alloca i32, align 4
  %4 = alloca ptr, align 8
  %5 = alloca ptr, align 8
  %6 = alloca ptr, align 8
  %7 = alloca ptr, align 8
  %8 = alloca ptr, align 8
  store ptr %0, ptr %4, align 8
  store ptr %1, ptr %5, align 8
  %9 = load ptr, ptr %4, align 8
  %10 = getelementptr inbounds %struct.Curl_easy, ptr %9, i32 0, i32 4
  %11 = load ptr, ptr %10, align 8
  store ptr %11, ptr %6, align 8
  %12 = load ptr, ptr %6, align 8
  %13 = getelementptr inbounds %struct.connectdata, ptr %12, i32 0, i32 40
  store ptr %13, ptr %7, align 8
  %14 = load ptr, ptr %4, align 8
  %15 = getelementptr inbounds %struct.Curl_easy, ptr %14, i32 0, i32 20
  %16 = getelementptr inbounds %struct.UrlState, ptr %15, i32 0, i32 55
  %17 = getelementptr inbounds %struct.dynamically_allocated_data, ptr %16, i32 0, i32 10
  %18 = load ptr, ptr %17, align 8
  %19 = icmp ne ptr %18, null
  br i1 %19, label %21, label %20

20:                                               ; preds = %2
  store i32 67, ptr %3, align 4
  br label %99

21:                                               ; preds = %2
  %22 = load ptr, ptr %7, align 8
  %23 = getelementptr inbounds %struct.smb_conn, ptr %22, i32 0, i32 0
  store i32 1, ptr %23, align 8
  %24 = load ptr, ptr @Curl_cmalloc, align 8
  %25 = call ptr %24(i64 noundef 36864)
  %26 = load ptr, ptr %7, align 8
  %27 = getelementptr inbounds %struct.smb_conn, ptr %26, i32 0, i32 7
  store ptr %25, ptr %27, align 8
  %28 = load ptr, ptr %7, align 8
  %29 = getelementptr inbounds %struct.smb_conn, ptr %28, i32 0, i32 7
  %30 = load ptr, ptr %29, align 8
  %31 = icmp ne ptr %30, null
  br i1 %31, label %33, label %32

32:                                               ; preds = %21
  store i32 27, ptr %3, align 4
  br label %99

33:                                               ; preds = %21
  %34 = load ptr, ptr %6, align 8
  call void @Curl_conncontrol(ptr noundef %34, i32 noundef 0)
  %35 = load ptr, ptr %6, align 8
  %36 = getelementptr inbounds %struct.connectdata, ptr %35, i32 0, i32 13
  %37 = load ptr, ptr %36, align 8
  %38 = call ptr @strchr(ptr noundef %37, i32 noundef 47) #7
  store ptr %38, ptr %8, align 8
  %39 = load ptr, ptr %8, align 8
  %40 = icmp ne ptr %39, null
  br i1 %40, label %46, label %41

41:                                               ; preds = %33
  %42 = load ptr, ptr %6, align 8
  %43 = getelementptr inbounds %struct.connectdata, ptr %42, i32 0, i32 13
  %44 = load ptr, ptr %43, align 8
  %45 = call ptr @strchr(ptr noundef %44, i32 noundef 92) #7
  store ptr %45, ptr %8, align 8
  br label %46

46:                                               ; preds = %41, %33
  %47 = load ptr, ptr %8, align 8
  %48 = icmp ne ptr %47, null
  br i1 %48, label %49, label %78

49:                                               ; preds = %46
  %50 = load ptr, ptr %8, align 8
  %51 = getelementptr inbounds i8, ptr %50, i64 1
  %52 = load ptr, ptr %7, align 8
  %53 = getelementptr inbounds %struct.smb_conn, ptr %52, i32 0, i32 1
  store ptr %51, ptr %53, align 8
  %54 = load ptr, ptr @Curl_cstrdup, align 8
  %55 = load ptr, ptr %6, align 8
  %56 = getelementptr inbounds %struct.connectdata, ptr %55, i32 0, i32 13
  %57 = load ptr, ptr %56, align 8
  %58 = call ptr %54(ptr noundef %57)
  %59 = load ptr, ptr %7, align 8
  %60 = getelementptr inbounds %struct.smb_conn, ptr %59, i32 0, i32 2
  store ptr %58, ptr %60, align 8
  %61 = load ptr, ptr %7, align 8
  %62 = getelementptr inbounds %struct.smb_conn, ptr %61, i32 0, i32 2
  %63 = load ptr, ptr %62, align 8
  %64 = icmp ne ptr %63, null
  br i1 %64, label %66, label %65

65:                                               ; preds = %49
  store i32 27, ptr %3, align 4
  br label %99

66:                                               ; preds = %49
  %67 = load ptr, ptr %7, align 8
  %68 = getelementptr inbounds %struct.smb_conn, ptr %67, i32 0, i32 2
  %69 = load ptr, ptr %68, align 8
  %70 = load ptr, ptr %8, align 8
  %71 = load ptr, ptr %6, align 8
  %72 = getelementptr inbounds %struct.connectdata, ptr %71, i32 0, i32 13
  %73 = load ptr, ptr %72, align 8
  %74 = ptrtoint ptr %70 to i64
  %75 = ptrtoint ptr %73 to i64
  %76 = sub i64 %74, %75
  %77 = getelementptr inbounds i8, ptr %69, i64 %76
  store i8 0, ptr %77, align 1
  br label %98

78:                                               ; preds = %46
  %79 = load ptr, ptr %6, align 8
  %80 = getelementptr inbounds %struct.connectdata, ptr %79, i32 0, i32 13
  %81 = load ptr, ptr %80, align 8
  %82 = load ptr, ptr %7, align 8
  %83 = getelementptr inbounds %struct.smb_conn, ptr %82, i32 0, i32 1
  store ptr %81, ptr %83, align 8
  %84 = load ptr, ptr @Curl_cstrdup, align 8
  %85 = load ptr, ptr %6, align 8
  %86 = getelementptr inbounds %struct.connectdata, ptr %85, i32 0, i32 6
  %87 = getelementptr inbounds %struct.hostname, ptr %86, i32 0, i32 2
  %88 = load ptr, ptr %87, align 8
  %89 = call ptr %84(ptr noundef %88)
  %90 = load ptr, ptr %7, align 8
  %91 = getelementptr inbounds %struct.smb_conn, ptr %90, i32 0, i32 2
  store ptr %89, ptr %91, align 8
  %92 = load ptr, ptr %7, align 8
  %93 = getelementptr inbounds %struct.smb_conn, ptr %92, i32 0, i32 2
  %94 = load ptr, ptr %93, align 8
  %95 = icmp ne ptr %94, null
  br i1 %95, label %97, label %96

96:                                               ; preds = %78
  store i32 27, ptr %3, align 4
  br label %99

97:                                               ; preds = %78
  br label %98

98:                                               ; preds = %97, %66
  store i32 0, ptr %3, align 4
  br label %99

99:                                               ; preds = %98, %96, %65, %32, %20
  %100 = load i32, ptr %3, align 4
  ret i32 %100
}