; Function Attrs: nounwind uwtable
define internal range(i32 0, 68) i32 @smb_connect(ptr noundef readonly captures(none) %0, ptr readnone captures(none) %1) #0 {
  %3 = getelementptr inbounds nuw i8, ptr %0, i64 32
  %4 = load ptr, ptr %3, align 8
  %5 = getelementptr inbounds nuw i8, ptr %0, i64 4904
  %6 = load ptr, ptr %5, align 8
  %.not = icmp eq ptr %6, null
  br i1 %.not, label %37, label %7

7:                                                ; preds = %2
  %8 = getelementptr inbounds nuw i8, ptr %4, i64 824
  store i32 1, ptr %8, align 8
  %9 = load ptr, ptr @Curl_cmalloc, align 8
  %10 = tail call ptr %9(i64 noundef 36864) #12
  %11 = getelementptr inbounds nuw i8, ptr %4, i64 872
  store ptr %10, ptr %11, align 8
  %.not27 = icmp eq ptr %10, null
  br i1 %.not27, label %37, label %12

12:                                               ; preds = %7
  tail call void @Curl_conncontrol(ptr noundef nonnull %4, i32 noundef 0) #12
  %13 = getelementptr inbounds nuw i8, ptr %4, i64 304
  %14 = load ptr, ptr %13, align 8
  %15 = tail call ptr @strchr(ptr noundef nonnull dereferenceable(1) %14, i32 noundef 47) #13
  %.not28 = icmp eq ptr %15, null
  br i1 %.not28, label %16, label %.thread

16:                                               ; preds = %12
  %17 = tail call ptr @strchr(ptr noundef nonnull dereferenceable(1) %14, i32 noundef 92) #13
  %.not29 = icmp eq ptr %17, null
  br i1 %.not29, label %29, label %.thread

.thread:                                          ; preds = %12, %16
  %.034 = phi ptr [ %17, %16 ], [ %15, %12 ]
  %18 = getelementptr inbounds nuw i8, ptr %.034, i64 1
  %19 = getelementptr inbounds nuw i8, ptr %4, i64 832
  store ptr %18, ptr %19, align 8
  %20 = load ptr, ptr @Curl_cstrdup, align 8
  %21 = tail call ptr %20(ptr noundef nonnull %14) #12
  %22 = getelementptr inbounds nuw i8, ptr %4, i64 840
  store ptr %21, ptr %22, align 8
  %.not31 = icmp eq ptr %21, null
  br i1 %.not31, label %37, label %23

23:                                               ; preds = %.thread
  %24 = load ptr, ptr %13, align 8
  %25 = ptrtoint ptr %.034 to i64
  %26 = ptrtoint ptr %24 to i64
  %27 = sub i64 %25, %26
  %28 = getelementptr inbounds i8, ptr %21, i64 %27
  store i8 0, ptr %28, align 1
  br label %36

29:                                               ; preds = %16
  %30 = getelementptr inbounds nuw i8, ptr %4, i64 832
  store ptr %14, ptr %30, align 8
  %31 = load ptr, ptr @Curl_cstrdup, align 8
  %32 = getelementptr inbounds nuw i8, ptr %4, i64 80
  %33 = load ptr, ptr %32, align 8
  %34 = tail call ptr %31(ptr noundef %33) #12
  %35 = getelementptr inbounds nuw i8, ptr %4, i64 840
  store ptr %34, ptr %35, align 8
  %.not30 = icmp eq ptr %34, null
  br i1 %.not30, label %37, label %36

36:                                               ; preds = %29, %23
  br label %37

37:                                               ; preds = %29, %.thread, %7, %2, %36
  %.024 = phi i32 [ 0, %36 ], [ 67, %2 ], [ 27, %7 ], [ 27, %.thread ], [ 27, %29 ]
  ret i32 %.024
}